target datalayout = "e-m:e-p270:32:32-p271:32:32-p272:64:64-i64:64-i128:128-f80:128-n8:16:32:64-S128"
target triple = "x86_64-pc-linux-gnu"

%struct.jpeg_compress_struct = type { ptr, ptr, ptr, ptr, i32, i32, ptr, i32, i32, i32, i32, double, i32, i32, i32, ptr, [4 x ptr], [4 x ptr], [4 x ptr], [16 x i8], [16 x i8], [16 x i8], i32, ptr, i32, i32, i32, i32, i32, i32, i32, i32, i32, i8, i8, i8, i16, i16, i32, i32, i32, i32, i32, i32, i32, [4 x ptr], i32, i32, i32, [10 x i32], i32, i32, i32, i32, ptr, ptr, ptr, ptr, ptr, ptr, ptr, ptr, ptr, ptr, i32 }
%struct.jpeg_error_mgr = type { ptr, ptr, ptr, ptr, ptr, i32, %union.anon, i32, i64, ptr, i32, ptr, i32, i32 }
%union.anon = type { [8 x i32], [48 x i8] }
%struct.jpeg_destination_mgr = type { ptr, i64, ptr, ptr, ptr }
%struct.JQUANT_TBL = type { [64 x i16], i32 }

@jpeg_natural_order = external constant [0 x i32], align 4

; Function Attrs: nounwind uwtable
define internal void @emit_byte(ptr noundef %0, i32 noundef %1) #0 {
  %3 = alloca ptr, align 8
  %4 = alloca i32, align 4
  %5 = alloca ptr, align 8
  store ptr %0, ptr %3, align 8, !tbaa !3
  store i32 %1, ptr %4, align 4, !tbaa !43
  call void @llvm.lifetime.start.p0(i64 8, ptr %5) #2
  %6 = load ptr, ptr %3, align 8, !tbaa !3
  %7 = getelementptr inbounds nuw %struct.jpeg_compress_struct, ptr %6, i32 0, i32 6
  %8 = load ptr, ptr %7, align 8, !tbaa !79
  store ptr %8, ptr %5, align 8, !tbaa !80
  %9 = load i32, ptr %4, align 4, !tbaa !43
  %10 = trunc i32 %9 to i8
  %11 = load ptr, ptr %5, align 8, !tbaa !80
  %12 = getelementptr inbounds nuw %struct.jpeg_destination_mgr, ptr %11, i32 0, i32 0
  %13 = load ptr, ptr %12, align 8, !tbaa !81
  %14 = getelementptr inbounds nuw i8, ptr %13, i32 1
  store ptr %14, ptr %12, align 8, !tbaa !81
  store i8 %10, ptr %13, align 1, !tbaa !84
  %15 = load ptr, ptr %5, align 8, !tbaa !80
  %16 = getelementptr inbounds nuw %struct.jpeg_destination_mgr, ptr %15, i32 0, i32 1
  %17 = load i64, ptr %16, align 8, !tbaa !85
  %18 = add i64 %17, -1
  store i64 %18, ptr %16, align 8, !tbaa !85
  %19 = icmp eq i64 %18, 0
  br i1 %19, label %20, label %39

20:                                               ; preds = %2
  %21 = load ptr, ptr %5, align 8, !tbaa !80
  %22 = getelementptr inbounds nuw %struct.jpeg_destination_mgr, ptr %21, i32 0, i32 3
  %23 = load ptr, ptr %22, align 8, !tbaa !86
  %24 = load ptr, ptr %3, align 8, !tbaa !3
  %25 = call i32 %23(ptr noundef %24)
  %26 = icmp ne i32 %25, 0
  br i1 %26, label %38, label %27

27:                                               ; preds = %20
  %28 = load ptr, ptr %3, align 8, !tbaa !3
  %29 = getelementptr inbounds nuw %struct.jpeg_compress_struct, ptr %28, i32 0, i32 0
  %30 = load ptr, ptr %29, align 8, !tbaa !59
  %31 = getelementptr inbounds nuw %struct.jpeg_error_mgr, ptr %30, i32 0, i32 5
  store i32 24, ptr %31, align 8, !tbaa !60
  %32 = load ptr, ptr %3, align 8, !tbaa !3
  %33 = getelementptr inbounds nuw %struct.jpeg_compress_struct, ptr %32, i32 0, i32 0
  %34 = load ptr, ptr %33, align 8, !tbaa !59
  %35 = getelementptr inbounds nuw %struct.jpeg_error_mgr, ptr %34, i32 0, i32 0
  %36 = load ptr, ptr %35, align 8, !tbaa !72
  %37 = load ptr, ptr %3, align 8, !tbaa !3
  call void %36(ptr noundef %37)
  br label %38

38:                                               ; preds = %27, %20
  br label %39

39:                                               ; preds = %38, %2
  call void @llvm.lifetime.end.p0(i64 8, ptr %5) #2
  ret void
}

; Function Attrs: nounwind uwtable
define internal void @emit_2bytes(ptr noundef %0, i32 noundef %1) #0 {
  %3 = alloca ptr, align 8
  %4 = alloca i32, align 4
  store ptr %0, ptr %3, align 8, !tbaa !3
  store i32 %1, ptr %4, align 4, !tbaa !43
  %5 = load ptr, ptr %3, align 8, !tbaa !3
  %6 = load i32, ptr %4, align 4, !tbaa !43
  %7 = ashr i32 %6, 8
  %8 = and i32 %7, 255
  call void @emit_byte(ptr noundef %5, i32 noundef %8)
  %9 = load ptr, ptr %3, align 8, !tbaa !3
  %10 = load i32, ptr %4, align 4, !tbaa !43
  %11 = and i32 %10, 255
  call void @emit_byte(ptr noundef %9, i32 noundef %11)
  ret void
}

; Function Attrs: nounwind uwtable
define internal void @emit_marker(ptr noundef %0, i32 noundef %1) #0 {
  %3 = alloca ptr, align 8
  %4 = alloca i32, align 4
  store ptr %0, ptr %3, align 8, !tbaa !3
  store i32 %1, ptr %4, align 4, !tbaa !43
  %5 = load ptr, ptr %3, align 8, !tbaa !3
  call void @emit_byte(ptr noundef %5, i32 noundef 255)
  %6 = load ptr, ptr %3, align 8, !tbaa !3
  %7 = load i32, ptr %4, align 4, !tbaa !43
  call void @emit_byte(ptr noundef %6, i32 noundef %7)
  ret void
}

; Function Attrs: nounwind uwtable
define internal i32 @emit_dqt(ptr noundef %0, i32 noundef %1) #0 {
  %3 = alloca ptr, align 8
  %4 = alloca i32, align 4
  %5 = alloca ptr, align 8
  %6 = alloca i32, align 4
  %7 = alloca i32, align 4
  %8 = alloca i32, align 4
  store ptr %0, ptr %3, align 8, !tbaa !3
  store i32 %1, ptr %4, align 4, !tbaa !43
  call void @llvm.lifetime.start.p0(i64 8, ptr %5) #2
  %9 = load ptr, ptr %3, align 8, !tbaa !3
  %10 = getelementptr inbounds nuw %struct.jpeg_compress_struct, ptr %9, i32 0, i32 16
  %11 = load i32, ptr %4, align 4, !tbaa !43
  %12 = sext i32 %11 to i64
  %13 = getelementptr inbounds [4 x ptr], ptr %10, i64 0, i64 %12
  %14 = load ptr, ptr %13, align 8, !tbaa !29
  store ptr %14, ptr %5, align 8, !tbaa !29
  call void @llvm.lifetime.start.p0(i64 4, ptr %6) #2
  call void @llvm.lifetime.start.p0(i64 4, ptr %7) #2
  %15 = load ptr, ptr %5, align 8, !tbaa !29
  %16 = icmp eq ptr %15, null
  br i1 %16, label %17, label %34

17:                                               ; preds = %2
  %18 = load ptr, ptr %3, align 8, !tbaa !3
  %19 = getelementptr inbounds nuw %struct.jpeg_compress_struct, ptr %18, i32 0, i32 0
  %20 = load ptr, ptr %19, align 8, !tbaa !59
  %21 = getelementptr inbounds nuw %struct.jpeg_error_mgr, ptr %20, i32 0, i32 5
  store i32 52, ptr %21, align 8, !tbaa !60
  %22 = load i32, ptr %4, align 4, !tbaa !43
  %23 = load ptr, ptr %3, align 8, !tbaa !3
  %24 = getelementptr inbounds nuw %struct.jpeg_compress_struct, ptr %23, i32 0, i32 0
  %25 = load ptr, ptr %24, align 8, !tbaa !59
  %26 = getelementptr inbounds nuw %struct.jpeg_error_mgr, ptr %25, i32 0, i32 6
  %27 = getelementptr inbounds [8 x i32], ptr %26, i64 0, i64 0
  store i32 %22, ptr %27, align 4, !tbaa !84
  %28 = load ptr, ptr %3, align 8, !tbaa !3
  %29 = getelementptr inbounds nuw %struct.jpeg_compress_struct, ptr %28, i32 0, i32 0
  %30 = load ptr, ptr %29, align 8, !tbaa !59
  %31 = getelementptr inbounds nuw %struct.jpeg_error_mgr, ptr %30, i32 0, i32 0
  %32 = load ptr, ptr %31, align 8, !tbaa !72
  %33 = load ptr, ptr %3, align 8, !tbaa !3
  call void %32(ptr noundef %33)
  br label %34

34:                                               ; preds = %17, %2
  store i32 0, ptr %6, align 4, !tbaa !43
  store i32 0, ptr %7, align 4, !tbaa !43
  br label %35

35:                                               ; preds = %49, %34
  %36 = load i32, ptr %7, align 4, !tbaa !43
  %37 = icmp slt i32 %36, 64
  br i1 %37, label %38, label %52

38:                                               ; preds = %35
  %39 = load ptr, ptr %5, align 8, !tbaa !29
  %40 = getelementptr inbounds nuw %struct.JQUANT_TBL, ptr %39, i32 0, i32 0
  %41 = load i32, ptr %7, align 4, !tbaa !43
  %42 = sext i32 %41 to i64
  %43 = getelementptr inbounds [64 x i16], ptr %40, i64 0, i64 %42
  %44 = load i16, ptr %43, align 2, !tbaa !87
  %45 = zext i16 %44 to i32
  %46 = icmp sgt i32 %45, 255
  br i1 %46, label %47, label %48

47:                                               ; preds = %38
  store i32 1, ptr %6, align 4, !tbaa !43
  br label %48

48:                                               ; preds = %47, %38
  br label %49

49:                                               ; preds = %48
  %50 = load i32, ptr %7, align 4, !tbaa !43
  %51 = add nsw i32 %50, 1
  store i32 %51, ptr %7, align 4, !tbaa !43
  br label %35, !llvm.loop !88

52:                                               ; preds = %35
  %53 = load ptr, ptr %5, align 8, !tbaa !29
  %54 = getelementptr inbounds nuw %struct.JQUANT_TBL, ptr %53, i32 0, i32 1
  %55 = load i32, ptr %54, align 4, !tbaa !89
  %56 = icmp ne i32 %55, 0
  br i1 %56, label %98, label %57

57:                                               ; preds = %52
  %58 = load ptr, ptr %3, align 8, !tbaa !3
  call void @emit_marker(ptr noundef %58, i32 noundef 219)
  %59 = load ptr, ptr %3, align 8, !tbaa !3
  %60 = load i32, ptr %6, align 4, !tbaa !43
  %61 = icmp ne i32 %60, 0
  %62 = select i1 %61, i32 131, i32 67
  call void @emit_2bytes(ptr noundef %59, i32 noundef %62)
  %63 = load ptr, ptr %3, align 8, !tbaa !3
  %64 = load i32, ptr %4, align 4, !tbaa !43
  %65 = load i32, ptr %6, align 4, !tbaa !43
  %66 = shl i32 %65, 4
  %67 = add nsw i32 %64, %66
  call void @emit_byte(ptr noundef %63, i32 noundef %67)
  store i32 0, ptr %7, align 4, !tbaa !43
  br label %68

68:                                               ; preds = %92, %57
  %69 = load i32, ptr %7, align 4, !tbaa !43
  %70 = icmp slt i32 %69, 64
  br i1 %70, label %71, label %95

71:                                               ; preds = %68
  call void @llvm.lifetime.start.p0(i64 4, ptr %8) #2
  %72 = load ptr, ptr %5, align 8, !tbaa !29
  %73 = getelementptr inbounds nuw %struct.JQUANT_TBL, ptr %72, i32 0, i32 0
  %74 = load i32, ptr %7, align 4, !tbaa !43
  %75 = sext i32 %74 to i64
  %76 = getelementptr inbounds [0 x i32], ptr @jpeg_natural_order, i64 0, i64 %75
  %77 = load i32, ptr %76, align 4, !tbaa !43
  %78 = sext i32 %77 to i64
  %79 = getelementptr inbounds [64 x i16], ptr %73, i64 0, i64 %78
  %80 = load i16, ptr %79, align 2, !tbaa !87
  %81 = zext i16 %80 to i32
  store i32 %81, ptr %8, align 4, !tbaa !43
  %82 = load i32, ptr %6, align 4, !tbaa !43
  %83 = icmp ne i32 %82, 0
  br i1 %83, label %84, label %88

84:                                               ; preds = %71
  %85 = load ptr, ptr %3, align 8, !tbaa !3
  %86 = load i32, ptr %8, align 4, !tbaa !43
  %87 = lshr i32 %86, 8
  call void @emit_byte(ptr noundef %85, i32 noundef %87)
  br label %88

88:                                               ; preds = %84, %71
  %89 = load ptr, ptr %3, align 8, !tbaa !3
  %90 = load i32, ptr %8, align 4, !tbaa !43
  %91 = and i32 %90, 255
  call void @emit_byte(ptr noundef %89, i32 noundef %91)
  call void @llvm.lifetime.end.p0(i64 4, ptr %8) #2
  br label %92

92:                                               ; preds = %88
  %93 = load i32, ptr %7, align 4, !tbaa !43
  %94 = add nsw i32 %93, 1
  store i32 %94, ptr %7, align 4, !tbaa !43
  br label %68, !llvm.loop !91

95:                                               ; preds = %68
  %96 = load ptr, ptr %5, align 8, !tbaa !29
  %97 = getelementptr inbounds nuw %struct.JQUANT_TBL, ptr %96, i32 0, i32 1
  store i32 1, ptr %97, align 4, !tbaa !89
  br label %98

98:                                               ; preds = %95, %52
  %99 = load i32, ptr %6, align 4, !tbaa !43
  call void @llvm.lifetime.end.p0(i64 4, ptr %7) #2
  call void @llvm.lifetime.end.p0(i64 4, ptr %6) #2
  call void @llvm.lifetime.end.p0(i64 8, ptr %5) #2
  ret i32 %99
}