; Function Attrs: nounwind uwtable
define internal fastcc range(i32 0, 2) i32 @emit_dqt(ptr noundef %0, i32 noundef %1) unnamed_addr #0 {
  %3 = getelementptr inbounds nuw i8, ptr %0, i64 96
  %4 = sext i32 %1 to i64
  %5 = getelementptr inbounds [4 x ptr], ptr %3, i64 0, i64 %4
  %6 = load ptr, ptr %5, align 8, !tbaa !78
  %7 = icmp eq ptr %6, null
  br i1 %7, label %8, label %.preheader

8:                                                ; preds = %2
  %9 = load ptr, ptr %0, align 8, !tbaa !45
  %10 = getelementptr inbounds nuw i8, ptr %9, i64 40
  store i32 52, ptr %10, align 8, !tbaa !46
  %11 = getelementptr inbounds nuw i8, ptr %9, i64 44
  store i32 %1, ptr %11, align 4, !tbaa !42
  %12 = load ptr, ptr %0, align 8, !tbaa !45
  %13 = load ptr, ptr %12, align 8, !tbaa !49
  tail call void %13(ptr noundef nonnull %0) #3
  br label %.preheader

.preheader:                                       ; preds = %8, %2
  br label %14

14:                                               ; preds = %.preheader, %14
  %indvars.iv = phi i64 [ %indvars.iv.next, %14 ], [ 0, %.preheader ]
  %.039 = phi i32 [ %spec.select, %14 ], [ 0, %.preheader ]
  %15 = getelementptr inbounds nuw [64 x i16], ptr %6, i64 0, i64 %indvars.iv
  %16 = load i16, ptr %15, align 2, !tbaa !89
  %17 = icmp ugt i16 %16, 255
  %spec.select = select i1 %17, i32 1, i32 %.039
  %indvars.iv.next = add nuw nsw i64 %indvars.iv, 1
  %exitcond.not = icmp eq i64 %indvars.iv.next, 64
  br i1 %exitcond.not, label %18, label %14, !llvm.loop !90

18:                                               ; preds = %14
  %19 = getelementptr inbounds nuw i8, ptr %6, i64 128
  %20 = load i32, ptr %19, align 4, !tbaa !91
  %.not = icmp eq i32 %20, 0
  br i1 %.not, label %21, label %161

21:                                               ; preds = %18
  %22 = getelementptr inbounds nuw i8, ptr %0, i64 40
  %23 = load ptr, ptr %22, align 8, !tbaa !38
  %24 = load ptr, ptr %23, align 8, !tbaa !39
  %25 = getelementptr inbounds nuw i8, ptr %24, i64 1
  store ptr %25, ptr %23, align 8, !tbaa !39
  store i8 -1, ptr %24, align 1, !tbaa !42
  %26 = getelementptr inbounds nuw i8, ptr %23, i64 8
  %27 = load i64, ptr %26, align 8, !tbaa !43
  %28 = add i64 %27, -1
  store i64 %28, ptr %26, align 8, !tbaa !43
  %29 = icmp eq i64 %28, 0
  br i1 %29, label %30, label %emit_byte.exit.i

30:                                               ; preds = %21
  %31 = getelementptr inbounds nuw i8, ptr %23, i64 24
  %32 = load ptr, ptr %31, align 8, !tbaa !44
  %33 = tail call i32 %32(ptr noundef nonnull %0) #3
  %.not.i.i = icmp eq i32 %33, 0
  br i1 %.not.i.i, label %34, label %emit_byte.exit.i

34:                                               ; preds = %30
  %35 = load ptr, ptr %0, align 8, !tbaa !45
  %36 = getelementptr inbounds nuw i8, ptr %35, i64 40
  store i32 24, ptr %36, align 8, !tbaa !46
  %37 = load ptr, ptr %35, align 8, !tbaa !49
  tail call void %37(ptr noundef nonnull %0) #3
  br label %emit_byte.exit.i

emit_byte.exit.i:                                 ; preds = %34, %30, %21
  %38 = load ptr, ptr %22, align 8, !tbaa !38
  %39 = load ptr, ptr %38, align 8, !tbaa !39
  %40 = getelementptr inbounds nuw i8, ptr %39, i64 1
  store ptr %40, ptr %38, align 8, !tbaa !39
  store i8 -37, ptr %39, align 1, !tbaa !42
  %41 = getelementptr inbounds nuw i8, ptr %38, i64 8
  %42 = load i64, ptr %41, align 8, !tbaa !43
  %43 = add i64 %42, -1
  store i64 %43, ptr %41, align 8, !tbaa !43
  %44 = icmp eq i64 %43, 0
  br i1 %44, label %45, label %emit_marker.exit

45:                                               ; preds = %emit_byte.exit.i
  %46 = getelementptr inbounds nuw i8, ptr %38, i64 24
  %47 = load ptr, ptr %46, align 8, !tbaa !44
  %48 = tail call i32 %47(ptr noundef nonnull %0) #3
  %.not.i2.i = icmp eq i32 %48, 0
  br i1 %.not.i2.i, label %49, label %emit_marker.exit

49:                                               ; preds = %45
  %50 = load ptr, ptr %0, align 8, !tbaa !45
  %51 = getelementptr inbounds nuw i8, ptr %50, i64 40
  store i32 24, ptr %51, align 8, !tbaa !46
  %52 = load ptr, ptr %50, align 8, !tbaa !49
  tail call void %52(ptr noundef nonnull %0) #3
  br label %emit_marker.exit

emit_marker.exit:                                 ; preds = %emit_byte.exit.i, %45, %49
  %.not31 = icmp eq i32 %spec.select, 0
  %53 = load ptr, ptr %22, align 8, !tbaa !38
  %54 = load ptr, ptr %53, align 8, !tbaa !39
  %55 = getelementptr inbounds nuw i8, ptr %54, i64 1
  store ptr %55, ptr %53, align 8, !tbaa !39
  store i8 0, ptr %54, align 1, !tbaa !42
  %56 = getelementptr inbounds nuw i8, ptr %53, i64 8
  %57 = load i64, ptr %56, align 8, !tbaa !43
  %58 = add i64 %57, -1
  store i64 %58, ptr %56, align 8, !tbaa !43
  %59 = icmp eq i64 %58, 0
  br i1 %59, label %60, label %emit_byte.exit.i32

60:                                               ; preds = %emit_marker.exit
  %61 = getelementptr inbounds nuw i8, ptr %53, i64 24
  %62 = load ptr, ptr %61, align 8, !tbaa !44
  %63 = tail call i32 %62(ptr noundef nonnull %0) #3
  %.not.i.i33 = icmp eq i32 %63, 0
  br i1 %.not.i.i33, label %64, label %emit_byte.exit.i32

64:                                               ; preds = %60
  %65 = load ptr, ptr %0, align 8, !tbaa !45
  %66 = getelementptr inbounds nuw i8, ptr %65, i64 40
  store i32 24, ptr %66, align 8, !tbaa !46
  %67 = load ptr, ptr %65, align 8, !tbaa !49
  tail call void %67(ptr noundef nonnull %0) #3
  br label %emit_byte.exit.i32

emit_byte.exit.i32:                               ; preds = %64, %60, %emit_marker.exit
  %68 = load ptr, ptr %22, align 8, !tbaa !38
  %69 = select i1 %.not31, i8 67, i8 -125
  %70 = load ptr, ptr %68, align 8, !tbaa !39
  %71 = getelementptr inbounds nuw i8, ptr %70, i64 1
  store ptr %71, ptr %68, align 8, !tbaa !39
  store i8 %69, ptr %70, align 1, !tbaa !42
  %72 = getelementptr inbounds nuw i8, ptr %68, i64 8
  %73 = load i64, ptr %72, align 8, !tbaa !43
  %74 = add i64 %73, -1
  store i64 %74, ptr %72, align 8, !tbaa !43
  %75 = icmp eq i64 %74, 0
  br i1 %75, label %76, label %emit_2bytes.exit

76:                                               ; preds = %emit_byte.exit.i32
  %77 = getelementptr inbounds nuw i8, ptr %68, i64 24
  %78 = load ptr, ptr %77, align 8, !tbaa !44
  %79 = tail call i32 %78(ptr noundef nonnull %0) #3
  %.not.i3.i = icmp eq i32 %79, 0
  br i1 %.not.i3.i, label %80, label %emit_2bytes.exit

80:                                               ; preds = %76
  %81 = load ptr, ptr %0, align 8, !tbaa !45
  %82 = getelementptr inbounds nuw i8, ptr %81, i64 40
  store i32 24, ptr %82, align 8, !tbaa !46
  %83 = load ptr, ptr %81, align 8, !tbaa !49
  tail call void %83(ptr noundef nonnull %0) #3
  br label %emit_2bytes.exit

emit_2bytes.exit:                                 ; preds = %emit_byte.exit.i32, %76, %80
  %84 = shl nuw nsw i32 %spec.select, 4
  %85 = add nsw i32 %84, %1
  %86 = load ptr, ptr %22, align 8, !tbaa !38
  %87 = trunc i32 %85 to i8
  %88 = load ptr, ptr %86, align 8, !tbaa !39
  %89 = getelementptr inbounds nuw i8, ptr %88, i64 1
  store ptr %89, ptr %86, align 8, !tbaa !39
  store i8 %87, ptr %88, align 1, !tbaa !42
  %90 = getelementptr inbounds nuw i8, ptr %86, i64 8
  %91 = load i64, ptr %90, align 8, !tbaa !43
  %92 = add i64 %91, -1
  store i64 %92, ptr %90, align 8, !tbaa !43
  %93 = icmp eq i64 %92, 0
  br i1 %93, label %94, label %emit_byte.exit

94:                                               ; preds = %emit_2bytes.exit
  %95 = getelementptr inbounds nuw i8, ptr %86, i64 24
  %96 = load ptr, ptr %95, align 8, !tbaa !44
  %97 = tail call i32 %96(ptr noundef nonnull %0) #3
  %.not.i = icmp eq i32 %97, 0
  br i1 %.not.i, label %98, label %emit_byte.exit

98:                                               ; preds = %94
  %99 = load ptr, ptr %0, align 8, !tbaa !45
  %100 = getelementptr inbounds nuw i8, ptr %99, i64 40
  store i32 24, ptr %100, align 8, !tbaa !46
  %101 = load ptr, ptr %99, align 8, !tbaa !49
  tail call void %101(ptr noundef nonnull %0) #3
  br label %emit_byte.exit

emit_byte.exit:                                   ; preds = %emit_2bytes.exit, %94, %98
  br i1 %.not31, label %emit_byte.exit35.us, label %emit_byte.exit.split

emit_byte.exit35.us:                              ; preds = %emit_byte.exit, %emit_byte.exit37.us
  %indvars.iv47 = phi i64 [ %indvars.iv.next48, %emit_byte.exit37.us ], [ 0, %emit_byte.exit ]
  %102 = getelementptr inbounds nuw [0 x i32], ptr @jpeg_natural_order, i64 0, i64 %indvars.iv47
  %103 = load i32, ptr %102, align 4, !tbaa !93
  %104 = sext i32 %103 to i64
  %105 = getelementptr inbounds [64 x i16], ptr %6, i64 0, i64 %104
  %106 = load i16, ptr %105, align 2, !tbaa !89
  %107 = load ptr, ptr %22, align 8, !tbaa !38
  %108 = trunc i16 %106 to i8
  %109 = load ptr, ptr %107, align 8, !tbaa !39
  %110 = getelementptr inbounds nuw i8, ptr %109, i64 1
  store ptr %110, ptr %107, align 8, !tbaa !39
  store i8 %108, ptr %109, align 1, !tbaa !42
  %111 = getelementptr inbounds nuw i8, ptr %107, i64 8
  %112 = load i64, ptr %111, align 8, !tbaa !43
  %113 = add i64 %112, -1
  store i64 %113, ptr %111, align 8, !tbaa !43
  %114 = icmp eq i64 %113, 0
  br i1 %114, label %115, label %emit_byte.exit37.us

115:                                              ; preds = %emit_byte.exit35.us
  %116 = getelementptr inbounds nuw i8, ptr %107, i64 24
  %117 = load ptr, ptr %116, align 8, !tbaa !44
  %118 = tail call i32 %117(ptr noundef nonnull %0) #3
  %.not.i36.us = icmp eq i32 %118, 0
  br i1 %.not.i36.us, label %119, label %emit_byte.exit37.us

119:                                              ; preds = %115
  %120 = load ptr, ptr %0, align 8, !tbaa !45
  %121 = getelementptr inbounds nuw i8, ptr %120, i64 40
  store i32 24, ptr %121, align 8, !tbaa !46
  %122 = load ptr, ptr %120, align 8, !tbaa !49
  tail call void %122(ptr noundef nonnull %0) #3
  br label %emit_byte.exit37.us

emit_byte.exit37.us:                              ; preds = %119, %115, %emit_byte.exit35.us
  %indvars.iv.next48 = add nuw nsw i64 %indvars.iv47, 1
  %exitcond50.not = icmp eq i64 %indvars.iv.next48, 64
  br i1 %exitcond50.not, label %.split.us, label %emit_byte.exit35.us, !llvm.loop !94

emit_byte.exit.split:                             ; preds = %emit_byte.exit, %emit_byte.exit37
  %indvars.iv43 = phi i64 [ %indvars.iv.next44, %emit_byte.exit37 ], [ 0, %emit_byte.exit ]
  %123 = getelementptr inbounds nuw [0 x i32], ptr @jpeg_natural_order, i64 0, i64 %indvars.iv43
  %124 = load i32, ptr %123, align 4, !tbaa !93
  %125 = sext i32 %124 to i64
  %126 = getelementptr inbounds [64 x i16], ptr %6, i64 0, i64 %125
  %127 = load i16, ptr %126, align 2, !tbaa !89
  %128 = lshr i16 %127, 8
  %129 = load ptr, ptr %22, align 8, !tbaa !38
  %130 = trunc nuw i16 %128 to i8
  %131 = load ptr, ptr %129, align 8, !tbaa !39
  %132 = getelementptr inbounds nuw i8, ptr %131, i64 1
  store ptr %132, ptr %129, align 8, !tbaa !39
  store i8 %130, ptr %131, align 1, !tbaa !42
  %133 = getelementptr inbounds nuw i8, ptr %129, i64 8
  %134 = load i64, ptr %133, align 8, !tbaa !43
  %135 = add i64 %134, -1
  store i64 %135, ptr %133, align 8, !tbaa !43
  %136 = icmp eq i64 %135, 0
  br i1 %136, label %137, label %emit_byte.exit35

137:                                              ; preds = %emit_byte.exit.split
  %138 = getelementptr inbounds nuw i8, ptr %129, i64 24
  %139 = load ptr, ptr %138, align 8, !tbaa !44
  %140 = tail call i32 %139(ptr noundef nonnull %0) #3
  %.not.i34 = icmp eq i32 %140, 0
  br i1 %.not.i34, label %141, label %emit_byte.exit35

141:                                              ; preds = %137
  %142 = load ptr, ptr %0, align 8, !tbaa !45
  %143 = getelementptr inbounds nuw i8, ptr %142, i64 40
  store i32 24, ptr %143, align 8, !tbaa !46
  %144 = load ptr, ptr %142, align 8, !tbaa !49
  tail call void %144(ptr noundef nonnull %0) #3
  br label %emit_byte.exit35

emit_byte.exit35:                                 ; preds = %141, %137, %emit_byte.exit.split
  %145 = load ptr, ptr %22, align 8, !tbaa !38
  %146 = trunc i16 %127 to i8
  %147 = load ptr, ptr %145, align 8, !tbaa !39
  %148 = getelementptr inbounds nuw i8, ptr %147, i64 1
  store ptr %148, ptr %145, align 8, !tbaa !39
  store i8 %146, ptr %147, align 1, !tbaa !42
  %149 = getelementptr inbounds nuw i8, ptr %145, i64 8
  %150 = load i64, ptr %149, align 8, !tbaa !43
  %151 = add i64 %150, -1
  store i64 %151, ptr %149, align 8, !tbaa !43
  %152 = icmp eq i64 %151, 0
  br i1 %152, label %153, label %emit_byte.exit37

153:                                              ; preds = %emit_byte.exit35
  %154 = getelementptr inbounds nuw i8, ptr %145, i64 24
  %155 = load ptr, ptr %154, align 8, !tbaa !44
  %156 = tail call i32 %155(ptr noundef nonnull %0) #3
  %.not.i36 = icmp eq i32 %156, 0
  br i1 %.not.i36, label %157, label %emit_byte.exit37

157:                                              ; preds = %153
  %158 = load ptr, ptr %0, align 8, !tbaa !45
  %159 = getelementptr inbounds nuw i8, ptr %158, i64 40
  store i32 24, ptr %159, align 8, !tbaa !46
  %160 = load ptr, ptr %158, align 8, !tbaa !49
  tail call void %160(ptr noundef nonnull %0) #3
  br label %emit_byte.exit37

emit_byte.exit37:                                 ; preds = %emit_byte.exit35, %153, %157
  %indvars.iv.next44 = add nuw nsw i64 %indvars.iv43, 1
  %exitcond46.not = icmp eq i64 %indvars.iv.next44, 64
  br i1 %exitcond46.not, label %.split.us, label %emit_byte.exit.split, !llvm.loop !94

.split.us:                                        ; preds = %emit_byte.exit37, %emit_byte.exit37.us
  store i32 1, ptr %19, align 4, !tbaa !91
  br label %161

161:                                              ; preds = %.split.us, %18
  ret i32 %spec.select
}